target datalayout = "e-m:e-p270:32:32-p271:32:32-p272:64:64-i64:64-i128:128-f80:128-n8:16:32:64-S128"
target triple = "x86_64-pc-linux-gnu"

%struct.rb_iseq_struct = type { i64, i64, ptr, %union.anon.16 }
%union.anon.16 = type { %struct.anon.17 }
%struct.anon.17 = type { i64, i32 }
%struct.rb_iseq_constant_body = type { i32, i32, ptr, %struct.anon.19, %struct.rb_iseq_location_struct, %struct.iseq_insn_info, ptr, ptr, ptr, ptr, ptr, ptr, %struct.anon.20, i32, i32, i32, i32, i32, i32, i32, i32, i8, %union.anon.21, ptr, ptr, ptr, i64, ptr, i64, ptr, i64 }
%struct.anon.19 = type { %struct.anon, i32, i32, i32, i32, i32, i32, i32, ptr, ptr }
%struct.anon = type { i16, [2 x i8] }
%struct.rb_iseq_location_struct = type { i64, i64, i64, i32, i32, %struct.rb_code_location_struct }
%struct.rb_code_location_struct = type { %struct.rb_code_position_struct, %struct.rb_code_position_struct }
%struct.rb_code_position_struct = type { i32, i32 }
%struct.iseq_insn_info = type { ptr, ptr, i32, ptr }
%struct.anon.20 = type { i64, i64, i64, i64, ptr }
%union.anon.21 = type { ptr }
%struct.rb_env_t = type { i64, ptr, ptr, ptr, i32 }

@ruby_current_ec = external thread_local global ptr, align 8
@.str.69 = private unnamed_addr constant [10 x i8] c"../proc.c\00", align 1

; Function Attrs: inlinehint nounwind sspstrong willreturn memory(none) uwtable
define internal zeroext i1 @RB_IMMEDIATE_P(i64 noundef %0) #12 {
  %2 = alloca i64, align 8
  store i64 %0, ptr %2, align 8, !tbaa !7
  %3 = load i64, ptr %2, align 8, !tbaa !7
  %4 = and i64 %3, 7
  %5 = icmp ne i64 %4, 0
  ret i1 %5
}

; Function Attrs: inlinehint nounwind sspstrong uwtable
define internal void @VM_FORCE_WRITE(ptr noundef %0, i64 noundef %1) #3 {
  %3 = alloca ptr, align 8
  %4 = alloca i64, align 8
  store ptr %0, ptr %3, align 8, !tbaa !35
  store i64 %1, ptr %4, align 8, !tbaa !7
  %5 = load i64, ptr %4, align 8, !tbaa !7
  %6 = load ptr, ptr %3, align 8, !tbaa !35
  store i64 %5, ptr %6, align 8, !tbaa !7
  ret void
}

; Function Attrs: inlinehint nounwind sspstrong willreturn memory(none) uwtable
define internal zeroext i1 @RB_SPECIAL_CONST_P(i64 noundef %0) #12 {
  %2 = alloca i64, align 8
  store i64 %0, ptr %2, align 8, !tbaa !7
  %3 = load i64, ptr %2, align 8, !tbaa !7
  %4 = icmp eq i64 %3, 0
  br i1 %4, label %8, label %5

5:                                                ; preds = %1
  %6 = load i64, ptr %2, align 8, !tbaa !7
  %7 = call zeroext i1 @RB_IMMEDIATE_P(i64 noundef %6) #29
  br label %8

8:                                                ; preds = %5, %1
  %9 = phi i1 [ true, %1 ], [ %7, %5 ]
  ret i1 %9
}

; Function Attrs: inlinehint nounwind sspstrong uwtable
define internal void @VM_FORCE_WRITE_SPECIAL_CONST(ptr noundef %0, i64 noundef %1) #3 {
  %3 = alloca ptr, align 8
  %4 = alloca i64, align 8
  store ptr %0, ptr %3, align 8, !tbaa !35
  store i64 %1, ptr %4, align 8, !tbaa !7
  %5 = load ptr, ptr %3, align 8, !tbaa !35
  %6 = load i64, ptr %4, align 8, !tbaa !7
  call void @VM_FORCE_WRITE(ptr noundef %5, i64 noundef %6)
  ret void
}

; Function Attrs: inlinehint nounwind sspstrong uwtable
define internal i64 @rb_obj_written(i64 noundef %0, i64 noundef %1, i64 noundef %2, ptr noundef %3, i32 noundef %4) #3 {
  %6 = alloca i64, align 8
  %7 = alloca i64, align 8
  %8 = alloca i64, align 8
  %9 = alloca ptr, align 8
  %10 = alloca i32, align 4
  store i64 %0, ptr %6, align 8, !tbaa !7
  store i64 %1, ptr %7, align 8, !tbaa !7
  store i64 %2, ptr %8, align 8, !tbaa !7
  store ptr %3, ptr %9, align 8, !tbaa !73
  store i32 %4, ptr %10, align 4, !tbaa !36
  %11 = load i64, ptr %8, align 8, !tbaa !7
  %12 = call zeroext i1 @RB_SPECIAL_CONST_P(i64 noundef %11) #29
  br i1 %12, label %16, label %13

13:                                               ; preds = %5
  %14 = load i64, ptr %6, align 8, !tbaa !7
  %15 = load i64, ptr %8, align 8, !tbaa !7
  call void @rb_gc_writebarrier(i64 noundef %14, i64 noundef %15)
  br label %16

16:                                               ; preds = %13, %5
  %17 = load i64, ptr %6, align 8, !tbaa !7
  ret i64 %17
}

; Function Attrs: inlinehint nounwind sspstrong uwtable
define internal void @VM_ENV_FLAGS_SET(ptr noundef %0, i64 noundef %1) #3 {
  %3 = alloca ptr, align 8
  %4 = alloca i64, align 8
  %5 = alloca i64, align 8
  store ptr %0, ptr %3, align 8, !tbaa !35
  store i64 %1, ptr %4, align 8, !tbaa !7
  call void @llvm.lifetime.start.p0(i64 8, ptr %5) #25
  %6 = load ptr, ptr %3, align 8, !tbaa !35
  %7 = getelementptr i64, ptr %6, i64 0
  %8 = load i64, ptr %7, align 8, !tbaa !7
  store i64 %8, ptr %5, align 8, !tbaa !7
  %9 = load ptr, ptr %3, align 8, !tbaa !35
  %10 = getelementptr i64, ptr %9, i64 0
  %11 = load i64, ptr %5, align 8, !tbaa !7
  %12 = load i64, ptr %4, align 8, !tbaa !7
  %13 = or i64 %11, %12
  call void @VM_FORCE_WRITE_SPECIAL_CONST(ptr noundef %10, i64 noundef %13)
  call void @llvm.lifetime.end.p0(i64 8, ptr %5) #25
  ret void
}

; Function Attrs: inlinehint nounwind sspstrong uwtable
define internal i64 @rb_obj_write(i64 noundef %0, ptr noundef %1, i64 noundef %2, ptr noundef %3, i32 noundef %4) #3 {
  %6 = alloca i64, align 8
  %7 = alloca ptr, align 8
  %8 = alloca i64, align 8
  %9 = alloca ptr, align 8
  %10 = alloca i32, align 4
  store i64 %0, ptr %6, align 8, !tbaa !7
  store ptr %1, ptr %7, align 8, !tbaa !35
  store i64 %2, ptr %8, align 8, !tbaa !7
  store ptr %3, ptr %9, align 8, !tbaa !73
  store i32 %4, ptr %10, align 4, !tbaa !36
  %11 = load i64, ptr %8, align 8, !tbaa !7
  %12 = load ptr, ptr %7, align 8, !tbaa !35
  store i64 %11, ptr %12, align 8, !tbaa !7
  %13 = load i64, ptr %6, align 8, !tbaa !7
  %14 = load i64, ptr %8, align 8, !tbaa !7
  %15 = load ptr, ptr %9, align 8, !tbaa !73
  %16 = load i32, ptr %10, align 4, !tbaa !36
  %17 = call i64 @rb_obj_written(i64 noundef %13, i64 noundef 36, i64 noundef %14, ptr noundef %15, i32 noundef %16)
  %18 = load i64, ptr %6, align 8, !tbaa !7
  ret i64 %18
}

; Function Attrs: inlinehint nounwind sspstrong uwtable
define internal i64 @VM_ENV_BLOCK_HANDLER(ptr noundef %0) #3 {
  %2 = alloca ptr, align 8
  store ptr %0, ptr %2, align 8, !tbaa !35
  %3 = load ptr, ptr %2, align 8, !tbaa !35
  %4 = getelementptr i64, ptr %3, i64 -1
  %5 = load i64, ptr %4, align 8, !tbaa !7
  ret i64 %5
}

; Function Attrs: inlinehint nounwind sspstrong uwtable
define internal ptr @rb_current_execution_context(i1 noundef zeroext %0) #3 {
  %2 = alloca i8, align 1
  %3 = alloca ptr, align 8
  %4 = zext i1 %0 to i8
  store i8 %4, ptr %2, align 1, !tbaa !32
  call void @llvm.lifetime.start.p0(i64 8, ptr %3) #25
  %5 = call align 8 ptr @llvm.threadlocal.address.p0(ptr align 8 @ruby_current_ec)
  %6 = load ptr, ptr %5, align 8, !tbaa !19
  store ptr %6, ptr %3, align 8, !tbaa !19
  %7 = load ptr, ptr %3, align 8, !tbaa !19
  call void @llvm.lifetime.end.p0(i64 8, ptr %3) #25
  ret ptr %7
}

; Function Attrs: inlinehint nounwind sspstrong uwtable
define internal i64 @VM_ENV_FLAGS(ptr noundef %0, i64 noundef %1) #3 {
  %3 = alloca ptr, align 8
  %4 = alloca i64, align 8
  %5 = alloca i64, align 8
  store ptr %0, ptr %3, align 8, !tbaa !35
  store i64 %1, ptr %4, align 8, !tbaa !7
  call void @llvm.lifetime.start.p0(i64 8, ptr %5) #25
  %6 = load ptr, ptr %3, align 8, !tbaa !35
  %7 = getelementptr i64, ptr %6, i64 0
  %8 = load i64, ptr %7, align 8, !tbaa !7
  store i64 %8, ptr %5, align 8, !tbaa !7
  %9 = load i64, ptr %5, align 8, !tbaa !7
  %10 = load i64, ptr %4, align 8, !tbaa !7
  %11 = and i64 %9, %10
  call void @llvm.lifetime.end.p0(i64 8, ptr %5) #25
  ret i64 %11
}

; Function Attrs: nounwind sspstrong uwtable
define internal ptr @get_local_variable_ptr(ptr noundef %0, i64 noundef %1) #0 {
  %3 = alloca ptr, align 8
  %4 = alloca ptr, align 8
  %5 = alloca i64, align 8
  %6 = alloca ptr, align 8
  %7 = alloca i32, align 4
  %8 = alloca ptr, align 8
  %9 = alloca i32, align 4
  %10 = alloca i32, align 4
  %11 = alloca ptr, align 8
  %12 = alloca i32, align 4
  store ptr %0, ptr %4, align 8, !tbaa !11
  store i64 %1, ptr %5, align 8, !tbaa !7
  call void @llvm.lifetime.start.p0(i64 8, ptr %6) #25
  %13 = load ptr, ptr %4, align 8, !tbaa !11
  %14 = load ptr, ptr %13, align 8, !tbaa !11
  store ptr %14, ptr %6, align 8, !tbaa !11
  br label %15

15:                                               ; preds = %136, %2
  %16 = load ptr, ptr %6, align 8, !tbaa !11
  %17 = getelementptr inbounds nuw %struct.rb_env_t, ptr %16, i32 0, i32 2
  %18 = load ptr, ptr %17, align 8, !tbaa !117
  %19 = call i64 @VM_ENV_FLAGS(ptr noundef %18, i64 noundef 128)
  %20 = icmp ne i64 %19, 0
  br i1 %20, label %133, label %21

21:                                               ; preds = %15
  %22 = load ptr, ptr %6, align 8, !tbaa !11
  %23 = getelementptr inbounds nuw %struct.rb_env_t, ptr %22, i32 0, i32 2
  %24 = load ptr, ptr %23, align 8, !tbaa !117
  %25 = call i64 @VM_ENV_FLAGS(ptr noundef %24, i64 noundef 16)
  %26 = icmp ne i64 %25, 0
  br i1 %26, label %27, label %28

27:                                               ; preds = %21
  store ptr null, ptr %3, align 8
  store i32 1, ptr %7, align 4
  br label %142

28:                                               ; preds = %21
  call void @llvm.lifetime.start.p0(i64 8, ptr %8) #25
  %29 = load ptr, ptr %6, align 8, !tbaa !11
  %30 = getelementptr inbounds nuw %struct.rb_env_t, ptr %29, i32 0, i32 1
  %31 = load ptr, ptr %30, align 8, !tbaa !115
  store ptr %31, ptr %8, align 8, !tbaa !58
  call void @llvm.lifetime.start.p0(i64 4, ptr %9) #25
  %32 = load ptr, ptr %8, align 8, !tbaa !58
  %33 = getelementptr inbounds nuw %struct.rb_iseq_struct, ptr %32, i32 0, i32 2
  %34 = load ptr, ptr %33, align 8, !tbaa !60
  %35 = getelementptr inbounds nuw %struct.rb_iseq_constant_body, ptr %34, i32 0, i32 13
  %36 = load i32, ptr %35, align 8, !tbaa !169
  store i32 %36, ptr %9, align 4, !tbaa !36
  call void @llvm.lifetime.start.p0(i64 4, ptr %10) #25
  store i32 0, ptr %10, align 4, !tbaa !36
  br label %37

37:                                               ; preds = %124, %28
  %38 = load i32, ptr %10, align 4, !tbaa !36
  %39 = load i32, ptr %9, align 4, !tbaa !36
  %40 = icmp ult i32 %38, %39
  br i1 %40, label %42, label %41

41:                                               ; preds = %37
  store i32 4, ptr %7, align 4
  br label %127

42:                                               ; preds = %37
  %43 = load ptr, ptr %8, align 8, !tbaa !58
  %44 = getelementptr inbounds nuw %struct.rb_iseq_struct, ptr %43, i32 0, i32 2
  %45 = load ptr, ptr %44, align 8, !tbaa !60
  %46 = getelementptr inbounds nuw %struct.rb_iseq_constant_body, ptr %45, i32 0, i32 6
  %47 = load ptr, ptr %46, align 8, !tbaa !170
  %48 = load i32, ptr %10, align 4, !tbaa !36
  %49 = zext i32 %48 to i64
  %50 = getelementptr i64, ptr %47, i64 %49
  %51 = load i64, ptr %50, align 8, !tbaa !7
  %52 = load i64, ptr %5, align 8, !tbaa !7
  %53 = icmp eq i64 %51, %52
  br i1 %53, label %54, label %123

54:                                               ; preds = %42
  %55 = load ptr, ptr %8, align 8, !tbaa !58
  %56 = getelementptr inbounds nuw %struct.rb_iseq_struct, ptr %55, i32 0, i32 2
  %57 = load ptr, ptr %56, align 8, !tbaa !60
  %58 = getelementptr inbounds nuw %struct.rb_iseq_constant_body, ptr %57, i32 0, i32 9
  %59 = load ptr, ptr %58, align 8, !tbaa !171
  %60 = load ptr, ptr %8, align 8, !tbaa !58
  %61 = icmp eq ptr %59, %60
  br i1 %61, label %62, label %105

62:                                               ; preds = %54
  %63 = load ptr, ptr %8, align 8, !tbaa !58
  %64 = getelementptr inbounds nuw %struct.rb_iseq_struct, ptr %63, i32 0, i32 2
  %65 = load ptr, ptr %64, align 8, !tbaa !60
  %66 = getelementptr inbounds nuw %struct.rb_iseq_constant_body, ptr %65, i32 0, i32 3
  %67 = getelementptr inbounds nuw %struct.anon.19, ptr %66, i32 0, i32 0
  %68 = load i16, ptr %67, align 8
  %69 = lshr i16 %68, 6
  %70 = and i16 %69, 1
  %71 = zext i16 %70 to i32
  %72 = icmp ne i32 %71, 0
  br i1 %72, label %73, label %105

73:                                               ; preds = %62
  %74 = load ptr, ptr %8, align 8, !tbaa !58
  %75 = getelementptr inbounds nuw %struct.rb_iseq_struct, ptr %74, i32 0, i32 2
  %76 = load ptr, ptr %75, align 8, !tbaa !60
  %77 = getelementptr inbounds nuw %struct.rb_iseq_constant_body, ptr %76, i32 0, i32 3
  %78 = getelementptr inbounds nuw %struct.anon.19, ptr %77, i32 0, i32 7
  %79 = load i32, ptr %78, align 4, !tbaa !172
  %80 = load i32, ptr %10, align 4, !tbaa !36
  %81 = icmp eq i32 %79, %80
  br i1 %81, label %82, label %105

82:                                               ; preds = %73
  call void @llvm.lifetime.start.p0(i64 8, ptr %11) #25
  %83 = load ptr, ptr %6, align 8, !tbaa !11
  %84 = getelementptr inbounds nuw %struct.rb_env_t, ptr %83, i32 0, i32 2
  %85 = load ptr, ptr %84, align 8, !tbaa !117
  store ptr %85, ptr %11, align 8, !tbaa !35
  %86 = load ptr, ptr %11, align 8, !tbaa !35
  %87 = call i64 @VM_ENV_FLAGS(ptr noundef %86, i64 noundef 512)
  %88 = icmp ne i64 %87, 0
  br i1 %88, label %104, label %89

89:                                               ; preds = %82
  %90 = load ptr, ptr %6, align 8, !tbaa !11
  %91 = ptrtoint ptr %90 to i64
  %92 = load ptr, ptr %6, align 8, !tbaa !11
  %93 = getelementptr inbounds nuw %struct.rb_env_t, ptr %92, i32 0, i32 3
  %94 = load ptr, ptr %93, align 8, !tbaa !151
  %95 = load i32, ptr %10, align 4, !tbaa !36
  %96 = zext i32 %95 to i64
  %97 = getelementptr i64, ptr %94, i64 %96
  %98 = call ptr @rb_current_execution_context(i1 noundef zeroext true)
  %99 = load ptr, ptr %11, align 8, !tbaa !35
  %100 = call i64 @VM_ENV_BLOCK_HANDLER(ptr noundef %99)
  %101 = call i64 @rb_vm_bh_to_procval(ptr noundef %98, i64 noundef %100)
  %102 = call i64 @rb_obj_write(i64 noundef %91, ptr noundef %97, i64 noundef %101, ptr noundef @.str.69, i32 noundef 428)
  %103 = load ptr, ptr %11, align 8, !tbaa !35
  call void @VM_ENV_FLAGS_SET(ptr noundef %103, i64 noundef 512)
  br label %104

104:                                              ; preds = %89, %82
  call void @llvm.lifetime.end.p0(i64 8, ptr %11) #25
  br label %105

105:                                              ; preds = %104, %73, %62, %54
  %106 = load ptr, ptr %6, align 8, !tbaa !11
  %107 = load ptr, ptr %4, align 8, !tbaa !11
  store ptr %106, ptr %107, align 8, !tbaa !11
  call void @llvm.lifetime.start.p0(i64 4, ptr %12) #25
  %108 = load ptr, ptr %6, align 8, !tbaa !11
  %109 = getelementptr inbounds nuw %struct.rb_env_t, ptr %108, i32 0, i32 4
  %110 = load i32, ptr %109, align 8, !tbaa !150
  %111 = add i32 %110, -3
  %112 = sub i32 %111, 1
  store i32 %112, ptr %12, align 4, !tbaa !36
  %113 = load ptr, ptr %6, align 8, !tbaa !11
  %114 = getelementptr inbounds nuw %struct.rb_env_t, ptr %113, i32 0, i32 3
  %115 = load ptr, ptr %114, align 8, !tbaa !151
  %116 = load i32, ptr %12, align 4, !tbaa !36
  %117 = load i32, ptr %9, align 4, !tbaa !36
  %118 = load i32, ptr %10, align 4, !tbaa !36
  %119 = sub i32 %117, %118
  %120 = sub i32 %116, %119
  %121 = zext i32 %120 to i64
  %122 = getelementptr i64, ptr %115, i64 %121
  store ptr %122, ptr %3, align 8
  store i32 1, ptr %7, align 4
  call void @llvm.lifetime.end.p0(i64 4, ptr %12) #25
  br label %127

123:                                              ; preds = %42
  br label %124

124:                                              ; preds = %123
  %125 = load i32, ptr %10, align 4, !tbaa !36
  %126 = add i32 %125, 1
  store i32 %126, ptr %10, align 4, !tbaa !36
  br label %37, !llvm.loop !173

127:                                              ; preds = %105, %41
  call void @llvm.lifetime.end.p0(i64 4, ptr %10) #25
  %128 = load i32, ptr %7, align 4
  switch i32 %128, label %130 [
    i32 4, label %129
  ]

129:                                              ; preds = %127
  store i32 0, ptr %7, align 4
  br label %130

130:                                              ; preds = %129, %127
  call void @llvm.lifetime.end.p0(i64 4, ptr %9) #25
  call void @llvm.lifetime.end.p0(i64 8, ptr %8) #25
  %131 = load i32, ptr %7, align 4
  switch i32 %131, label %142 [
    i32 0, label %132
  ]

132:                                              ; preds = %130
  br label %135

133:                                              ; preds = %15
  %134 = load ptr, ptr %4, align 8, !tbaa !11
  store ptr null, ptr %134, align 8, !tbaa !11
  store ptr null, ptr %3, align 8
  store i32 1, ptr %7, align 4
  br label %142

135:                                              ; preds = %132
  br label %136

136:                                              ; preds = %135
  %137 = load ptr, ptr %6, align 8, !tbaa !11
  %138 = call ptr @rb_vm_env_prev_env(ptr noundef %137)
  store ptr %138, ptr %6, align 8, !tbaa !11
  %139 = icmp ne ptr %138, null
  br i1 %139, label %15, label %140, !llvm.loop !174

140:                                              ; preds = %136
  %141 = load ptr, ptr %4, align 8, !tbaa !11
  store ptr null, ptr %141, align 8, !tbaa !11
  store ptr null, ptr %3, align 8
  store i32 1, ptr %7, align 4
  br label %142

142:                                              ; preds = %140, %133, %130, %27
  call void @llvm.lifetime.end.p0(i64 8, ptr %6) #25
  %143 = load ptr, ptr %3, align 8
  ret ptr %143
}