; Function Attrs: nounwind sspstrong uwtable
define internal fastcc ptr @get_local_variable_ptr(ptr noundef nonnull captures(none) %0, i64 noundef %1) unnamed_addr #0 {
  %3 = load ptr, ptr %0, align 8, !tbaa !133
  br label %4

4:                                                ; preds = %._crit_edge, %2
  %.036 = phi ptr [ %3, %2 ], [ %62, %._crit_edge ]
  %5 = getelementptr inbounds nuw i8, ptr %.036, i64 16
  %6 = load ptr, ptr %5, align 8, !tbaa !109
  %.val = load i64, ptr %6, align 8, !tbaa !36
  %7 = and i64 %.val, 128
  %.not = icmp eq i64 %7, 0
  br i1 %.not, label %8, label %61

8:                                                ; preds = %4
  %9 = and i64 %.val, 16
  %.not41 = icmp eq i64 %9, 0
  br i1 %.not41, label %10, label %.loopexit

10:                                               ; preds = %8
  %11 = getelementptr inbounds nuw i8, ptr %.036, i64 8
  %12 = load ptr, ptr %11, align 8, !tbaa !111
  %13 = getelementptr inbounds nuw i8, ptr %12, i64 16
  %14 = load ptr, ptr %13, align 8, !tbaa !48
  %15 = getelementptr inbounds nuw i8, ptr %14, i64 232
  %16 = load i32, ptr %15, align 8, !tbaa !136
  %.not4468.not = icmp eq i32 %16, 0
  br i1 %.not4468.not, label %._crit_edge, label %.lr.ph

.lr.ph:                                           ; preds = %10
  %17 = getelementptr inbounds nuw i8, ptr %14, i64 144
  %18 = load ptr, ptr %17, align 8, !tbaa !137
  %wide.trip.count = zext i32 %16 to i64
  br label %19

19:                                               ; preds = %.lr.ph, %60
  %indvars.iv = phi i64 [ 0, %.lr.ph ], [ %indvars.iv.next, %60 ]
  %20 = getelementptr i64, ptr %18, i64 %indvars.iv
  %21 = load i64, ptr %20, align 8, !tbaa !36
  %22 = icmp eq i64 %21, %1
  br i1 %22, label %23, label %60

23:                                               ; preds = %19
  %24 = trunc nuw i64 %indvars.iv to i32
  %25 = getelementptr inbounds nuw i8, ptr %14, i64 168
  %26 = load ptr, ptr %25, align 8, !tbaa !138
  %27 = icmp eq ptr %26, %12
  br i1 %27, label %28, label %.thread

28:                                               ; preds = %23
  %29 = getelementptr inbounds nuw i8, ptr %14, i64 16
  %30 = load i16, ptr %29, align 8
  %31 = and i16 %30, 64
  %.not42 = icmp eq i16 %31, 0
  br i1 %.not42, label %.thread, label %32

32:                                               ; preds = %28
  %33 = getelementptr inbounds nuw i8, ptr %14, i64 44
  %34 = load i32, ptr %33, align 4, !tbaa !139
  %35 = icmp eq i32 %34, %24
  %36 = and i64 %.val, 512
  %.not43 = icmp eq i64 %36, 0
  %or.cond = and i1 %.not43, %35
  br i1 %or.cond, label %37, label %.thread

37:                                               ; preds = %32
  %38 = getelementptr inbounds nuw i8, ptr %.036, i64 24
  %39 = load ptr, ptr %38, align 8, !tbaa !110
  %40 = getelementptr i64, ptr %39, i64 %indvars.iv
  %41 = tail call align 8 ptr @llvm.threadlocal.address.p0(ptr align 8 @ruby_current_ec)
  %42 = load ptr, ptr %41, align 8, !tbaa !20
  %43 = getelementptr i8, ptr %6, i64 -8
  %.val48 = load i64, ptr %43, align 8, !tbaa !36
  %44 = tail call i64 @rb_vm_bh_to_procval(ptr noundef %42, i64 noundef %.val48) #21
  store i64 %44, ptr %40, align 8, !tbaa !36
  %45 = icmp eq i64 %44, 0
  %46 = and i64 %44, 7
  %47 = icmp ne i64 %46, 0
  %48 = or i1 %45, %47
  br i1 %48, label %rb_obj_write.exit, label %49

49:                                               ; preds = %37
  %50 = ptrtoint ptr %.036 to i64
  tail call void @rb_gc_writebarrier(i64 noundef %50, i64 noundef %44) #21
  br label %rb_obj_write.exit

rb_obj_write.exit:                                ; preds = %37, %49
  %51 = load i64, ptr %6, align 8, !tbaa !36
  %52 = or i64 %51, 512
  store i64 %52, ptr %6, align 8, !tbaa !36
  br label %.thread

.thread:                                          ; preds = %23, %28, %32, %rb_obj_write.exit
  store ptr %.036, ptr %0, align 8, !tbaa !133
  %53 = getelementptr inbounds nuw i8, ptr %.036, i64 32
  %54 = load i32, ptr %53, align 8, !tbaa !107
  %55 = getelementptr inbounds nuw i8, ptr %.036, i64 24
  %56 = load ptr, ptr %55, align 8, !tbaa !110
  %reass.sub = sub i32 %24, %16
  %.neg = add i32 %reass.sub, -4
  %57 = add i32 %.neg, %54
  %58 = zext i32 %57 to i64
  %59 = getelementptr i64, ptr %56, i64 %58
  br label %.loopexit

60:                                               ; preds = %19
  %indvars.iv.next = add nuw nsw i64 %indvars.iv, 1
  %exitcond.not = icmp eq i64 %indvars.iv.next, %wide.trip.count
  br i1 %exitcond.not, label %._crit_edge, label %19, !llvm.loop !140

61:                                               ; preds = %4
  store ptr null, ptr %0, align 8, !tbaa !133
  br label %.loopexit

._crit_edge:                                      ; preds = %60, %10
  %62 = tail call ptr @rb_vm_env_prev_env(ptr noundef %.036) #21
  %.not45 = icmp eq ptr %62, null
  br i1 %.not45, label %63, label %4, !llvm.loop !141

63:                                               ; preds = %._crit_edge
  store ptr null, ptr %0, align 8, !tbaa !133
  br label %.loopexit

.loopexit:                                        ; preds = %8, %.thread, %63, %61
  %.1 = phi ptr [ null, %61 ], [ null, %63 ], [ %59, %.thread ], [ null, %8 ]
  ret ptr %.1
}